target datalayout = "e-m:e-p270:32:32-p271:32:32-p272:64:64-i64:64-i128:128-f80:128-n8:16:32:64-S128"
target triple = "x86_64-pc-linux-gnu"

%struct.lv_event_list_t = type { %struct._lv_array_t, i8 }
%struct._lv_array_t = type { ptr, i32, i32, i32, i8 }
%struct.lv_area_t = type { i32, i32, i32, i32 }
%struct.lv_point_t = type { i32, i32 }
%struct._lv_obj_t = type { ptr, ptr, ptr, ptr, ptr, %struct.lv_area_t, i32, i16, i16 }
%struct._lv_obj_spec_attr_t = type { ptr, ptr, %struct.lv_event_list_t, %struct.lv_point_t, i32, i32, i16, i16 }
%struct._lv_cover_check_info_t = type { i32, ptr }

; Function Attrs: nounwind uwtable
define internal ptr @lv_refr_get_top_obj(ptr noundef %0, ptr noundef %1) #0 {
  %3 = alloca ptr, align 8
  %4 = alloca ptr, align 8
  %5 = alloca ptr, align 8
  %6 = alloca ptr, align 8
  %7 = alloca i32, align 4
  %8 = alloca %struct._lv_cover_check_info_t, align 8
  %9 = alloca i32, align 4
  %10 = alloca i32, align 4
  %11 = alloca ptr, align 8
  store ptr %0, ptr %4, align 8, !tbaa !3
  store ptr %1, ptr %5, align 8, !tbaa !3
  call void @llvm.lifetime.start.p0(i64 8, ptr %6) #6
  store ptr null, ptr %6, align 8, !tbaa !3
  %12 = load ptr, ptr %4, align 8, !tbaa !3
  %13 = load ptr, ptr %5, align 8, !tbaa !3
  %14 = getelementptr inbounds nuw %struct._lv_obj_t, ptr %13, i32 0, i32 5
  %15 = call zeroext i1 @lv_area_is_in(ptr noundef %12, ptr noundef %14, i32 noundef 0)
  %16 = zext i1 %15 to i32
  %17 = icmp eq i32 %16, 0
  br i1 %17, label %18, label %19

18:                                               ; preds = %2
  store ptr null, ptr %3, align 8
  store i32 1, ptr %7, align 4
  br label %81

19:                                               ; preds = %2
  %20 = load ptr, ptr %5, align 8, !tbaa !3
  %21 = call zeroext i1 @lv_obj_has_flag(ptr noundef %20, i32 noundef 1)
  br i1 %21, label %22, label %23

22:                                               ; preds = %19
  store ptr null, ptr %3, align 8
  store i32 1, ptr %7, align 4
  br label %81

23:                                               ; preds = %19
  %24 = load ptr, ptr %5, align 8, !tbaa !3
  %25 = call i32 @lv_obj_get_layer_type(ptr noundef %24)
  %26 = icmp ne i32 %25, 0
  br i1 %26, label %27, label %28

27:                                               ; preds = %23
  store ptr null, ptr %3, align 8
  store i32 1, ptr %7, align 4
  br label %81

28:                                               ; preds = %23
  call void @llvm.lifetime.start.p0(i64 16, ptr %8) #6
  %29 = getelementptr inbounds nuw %struct._lv_cover_check_info_t, ptr %8, i32 0, i32 0
  store i32 0, ptr %29, align 8, !tbaa !121
  %30 = load ptr, ptr %4, align 8, !tbaa !3
  %31 = getelementptr inbounds nuw %struct._lv_cover_check_info_t, ptr %8, i32 0, i32 1
  store ptr %30, ptr %31, align 8, !tbaa !123
  %32 = load ptr, ptr %5, align 8, !tbaa !3
  %33 = call i32 @lv_obj_send_event(ptr noundef %32, i32 noundef 26, ptr noundef %8)
  %34 = getelementptr inbounds nuw %struct._lv_cover_check_info_t, ptr %8, i32 0, i32 0
  %35 = load i32, ptr %34, align 8, !tbaa !121
  %36 = icmp eq i32 %35, 2
  br i1 %36, label %37, label %38

37:                                               ; preds = %28
  store ptr null, ptr %3, align 8
  store i32 1, ptr %7, align 4
  br label %80

38:                                               ; preds = %28
  call void @llvm.lifetime.start.p0(i64 4, ptr %9) #6
  call void @llvm.lifetime.start.p0(i64 4, ptr %10) #6
  %39 = load ptr, ptr %5, align 8, !tbaa !3
  %40 = call i32 @lv_obj_get_child_count(ptr noundef %39)
  store i32 %40, ptr %10, align 4, !tbaa !41
  %41 = load i32, ptr %10, align 4, !tbaa !41
  %42 = sub nsw i32 %41, 1
  store i32 %42, ptr %9, align 4, !tbaa !41
  br label %43

43:                                               ; preds = %66, %38
  %44 = load i32, ptr %9, align 4, !tbaa !41
  %45 = icmp sge i32 %44, 0
  br i1 %45, label %46, label %69

46:                                               ; preds = %43
  call void @llvm.lifetime.start.p0(i64 8, ptr %11) #6
  %47 = load ptr, ptr %5, align 8, !tbaa !3
  %48 = getelementptr inbounds nuw %struct._lv_obj_t, ptr %47, i32 0, i32 2
  %49 = load ptr, ptr %48, align 8, !tbaa !48
  %50 = getelementptr inbounds nuw %struct._lv_obj_spec_attr_t, ptr %49, i32 0, i32 0
  %51 = load ptr, ptr %50, align 8, !tbaa !51
  %52 = load i32, ptr %9, align 4, !tbaa !41
  %53 = sext i32 %52 to i64
  %54 = getelementptr inbounds ptr, ptr %51, i64 %53
  %55 = load ptr, ptr %54, align 8, !tbaa !3
  store ptr %55, ptr %11, align 8, !tbaa !3
  %56 = load ptr, ptr %4, align 8, !tbaa !3
  %57 = load ptr, ptr %11, align 8, !tbaa !3
  %58 = call ptr @lv_refr_get_top_obj(ptr noundef %56, ptr noundef %57)
  store ptr %58, ptr %6, align 8, !tbaa !3
  %59 = load ptr, ptr %6, align 8, !tbaa !3
  %60 = icmp ne ptr %59, null
  br i1 %60, label %61, label %62

61:                                               ; preds = %46
  store i32 2, ptr %7, align 4
  br label %63

62:                                               ; preds = %46
  store i32 0, ptr %7, align 4
  br label %63

63:                                               ; preds = %62, %61
  call void @llvm.lifetime.end.p0(i64 8, ptr %11) #6
  %64 = load i32, ptr %7, align 4
  switch i32 %64, label %83 [
    i32 0, label %65
    i32 2, label %69
  ]

65:                                               ; preds = %63
  br label %66

66:                                               ; preds = %65
  %67 = load i32, ptr %9, align 4, !tbaa !41
  %68 = add nsw i32 %67, -1
  store i32 %68, ptr %9, align 4, !tbaa !41
  br label %43, !llvm.loop !124

69:                                               ; preds = %63, %43
  %70 = load ptr, ptr %6, align 8, !tbaa !3
  %71 = icmp eq ptr %70, null
  br i1 %71, label %72, label %78

72:                                               ; preds = %69
  %73 = getelementptr inbounds nuw %struct._lv_cover_check_info_t, ptr %8, i32 0, i32 0
  %74 = load i32, ptr %73, align 8, !tbaa !121
  %75 = icmp eq i32 %74, 0
  br i1 %75, label %76, label %78

76:                                               ; preds = %72
  %77 = load ptr, ptr %5, align 8, !tbaa !3
  store ptr %77, ptr %6, align 8, !tbaa !3
  br label %78

78:                                               ; preds = %76, %72, %69
  %79 = load ptr, ptr %6, align 8, !tbaa !3
  store ptr %79, ptr %3, align 8
  store i32 1, ptr %7, align 4
  call void @llvm.lifetime.end.p0(i64 4, ptr %10) #6
  call void @llvm.lifetime.end.p0(i64 4, ptr %9) #6
  br label %80

80:                                               ; preds = %78, %37
  call void @llvm.lifetime.end.p0(i64 16, ptr %8) #6
  br label %81

81:                                               ; preds = %80, %27, %22, %18
  call void @llvm.lifetime.end.p0(i64 8, ptr %6) #6
  %82 = load ptr, ptr %3, align 8
  ret ptr %82

83:                                               ; preds = %63
  unreachable
}