; Function Attrs: nounwind uwtable
define internal fastcc ptr @lv_refr_get_top_obj(ptr noundef %0, ptr noundef %1) unnamed_addr #1 {
  %3 = alloca %struct._lv_cover_check_info_t, align 8
  %4 = getelementptr inbounds nuw i8, ptr %1, i64 40
  %5 = tail call zeroext i1 @lv_area_is_in(ptr noundef %0, ptr noundef nonnull %4, i32 noundef 0) #9
  br i1 %5, label %6, label %34

6:                                                ; preds = %2
  %7 = tail call zeroext i1 @lv_obj_has_flag(ptr noundef %1, i32 noundef 1) #9
  br i1 %7, label %34, label %8

8:                                                ; preds = %6
  %9 = tail call i32 @lv_obj_get_layer_type(ptr noundef %1) #9
  %.not = icmp eq i32 %9, 0
  br i1 %.not, label %10, label %34

10:                                               ; preds = %8
  call void @llvm.lifetime.start.p0(i64 16, ptr nonnull %3) #9
  store i32 0, ptr %3, align 8, !tbaa !82
  %11 = getelementptr inbounds nuw i8, ptr %3, i64 8
  store ptr %0, ptr %11, align 8, !tbaa !84
  %12 = call i32 @lv_obj_send_event(ptr noundef %1, i32 noundef 26, ptr noundef nonnull %3) #9
  %13 = load i32, ptr %3, align 8, !tbaa !82
  %14 = icmp eq i32 %13, 2
  br i1 %14, label %33, label %15

15:                                               ; preds = %10
  %16 = call i32 @lv_obj_get_child_count(ptr noundef %1) #9
  %17 = getelementptr inbounds nuw i8, ptr %1, i64 16
  %18 = zext i32 %16 to i64
  br label %19

19:                                               ; preds = %22, %15
  %indvars.iv = phi i64 [ %23, %22 ], [ %18, %15 ]
  %20 = trunc nuw i64 %indvars.iv to i32
  %21 = icmp sgt i32 %20, 0
  br i1 %21, label %22, label %29

22:                                               ; preds = %19
  %23 = add nsw i64 %indvars.iv, -1
  %24 = load ptr, ptr %17, align 8, !tbaa !65
  %25 = load ptr, ptr %24, align 8, !tbaa !68
  %26 = getelementptr inbounds ptr, ptr %25, i64 %23
  %27 = load ptr, ptr %26, align 8, !tbaa !71
  %28 = call fastcc ptr @lv_refr_get_top_obj(ptr noundef %0, ptr noundef %27)
  %.not25 = icmp eq ptr %28, null
  br i1 %.not25, label %19, label %29

29:                                               ; preds = %22, %19
  %.122 = phi ptr [ %28, %22 ], [ null, %19 ]
  %30 = icmp eq ptr %.122, null
  %31 = load i32, ptr %3, align 8
  %32 = icmp eq i32 %31, 0
  %or.cond = select i1 %30, i1 %32, i1 false
  %spec.select = select i1 %or.cond, ptr %1, ptr %.122
  br label %33

33:                                               ; preds = %10, %29
  %.1 = phi ptr [ %spec.select, %29 ], [ null, %10 ]
  call void @llvm.lifetime.end.p0(i64 16, ptr nonnull %3) #9
  br label %34

34:                                               ; preds = %8, %6, %2, %33
  %.0 = phi ptr [ %.1, %33 ], [ null, %2 ], [ null, %6 ], [ null, %8 ]
  ret ptr %.0
}